; Function Attrs: mustprogress uwtable
define void @_ZN2cv3MatC2ENS_5Size_IiEEi(ptr noundef nonnull align 8 dereferenceable(96) initializes((0, 64)) %0, i64 %1, i32 noundef %2) unnamed_addr #1 align 2 {
_ZN2cv3Mat6createEiii.exit:
  %3 = alloca [2 x i32], align 4
  %.sroa.0.0.extract.trunc = trunc i64 %1 to i32
  store i32 1124007936, ptr %0, align 8, !tbaa !61
  %4 = getelementptr inbounds nuw i8, ptr %0, i64 4
  %5 = getelementptr inbounds nuw i8, ptr %0, i64 8
  %6 = getelementptr inbounds nuw i8, ptr %0, i64 64
  tail call void @llvm.memset.p0.i64(ptr noundef nonnull align 4 dereferenceable(60) %4, i8 0, i64 60, i1 false)
  store ptr %5, ptr %6, align 8, !tbaa !49
  %7 = getelementptr inbounds nuw i8, ptr %0, i64 72
  %8 = getelementptr inbounds nuw i8, ptr %0, i64 80
  store ptr %8, ptr %7, align 8, !tbaa !63
  %.sroa.2.0.extract.shift = lshr i64 %1, 32
  %.sroa.2.0.extract.trunc = trunc nuw i64 %.sroa.2.0.extract.shift to i32
  %9 = and i32 %2, 4095
  tail call void @llvm.memset.p0.i64(ptr noundef nonnull align 8 dereferenceable(16) %8, i8 0, i64 16, i1 false)
  call void @llvm.lifetime.start.p0(i64 8, ptr nonnull %3) #24
  store i32 %.sroa.2.0.extract.trunc, ptr %3, align 4, !tbaa !23
  %10 = getelementptr inbounds nuw i8, ptr %3, i64 4
  store i32 %.sroa.0.0.extract.trunc, ptr %10, align 4, !tbaa !23
  call void @_ZN2cv3Mat6createEiPKii(ptr noundef nonnull align 8 dereferenceable(96) %0, i32 noundef 2, ptr noundef nonnull %3, i32 noundef %9)
  call void @llvm.lifetime.end.p0(i64 8, ptr nonnull %3) #24
  ret void
}